target datalayout = "e-m:e-p270:32:32-p271:32:32-p272:64:64-i64:64-i128:128-f80:128-n8:16:32:64-S128"
target triple = "x86_64-pc-linux-gnu"

%struct.varattrib_1b = type { i8, [0 x i8] }
%struct.varattrib_1b_e = type { i8, i8, [0 x i8] }
%struct.anon = type { i32, [0 x i8] }
%struct.pg_re_flags = type { i32, i8 }

@.str.3 = private unnamed_addr constant [9 x i8] c"regexp.c\00", align 1
@.str.4 = private unnamed_addr constant [42 x i8] c"invalid regular expression option: \22%.*s\22\00", align 1
@__func__.parse_re_flags = private unnamed_addr constant [15 x i8] c"parse_re_flags\00", align 1

; Function Attrs: nounwind uwtable
define internal void @parse_re_flags(ptr noundef %0, ptr noundef %1) #0 {
  %3 = alloca ptr, align 8
  %4 = alloca ptr, align 8
  %5 = alloca ptr, align 8
  %6 = alloca i32, align 4
  %7 = alloca i32, align 4
  store ptr %0, ptr %3, align 8
  store ptr %1, ptr %4, align 8
  %8 = load ptr, ptr %3, align 8
  %9 = getelementptr inbounds nuw %struct.pg_re_flags, ptr %8, i32 0, i32 0
  store i32 3, ptr %9, align 4
  %10 = load ptr, ptr %3, align 8
  %11 = getelementptr inbounds nuw %struct.pg_re_flags, ptr %10, i32 0, i32 1
  store i8 0, ptr %11, align 4
  %12 = load ptr, ptr %4, align 8
  %13 = icmp ne ptr %12, null
  br i1 %13, label %14, label %204

14:                                               ; preds = %2
  call void @llvm.lifetime.start.p0(i64 8, ptr %5) #8
  %15 = load ptr, ptr %4, align 8
  %16 = getelementptr inbounds nuw %struct.varattrib_1b, ptr %15, i32 0, i32 0
  %17 = load i8, ptr %16, align 1
  %18 = zext i8 %17 to i32
  %19 = and i32 %18, 1
  %20 = icmp eq i32 %19, 1
  br i1 %20, label %21, label %25

21:                                               ; preds = %14
  %22 = load ptr, ptr %4, align 8
  %23 = getelementptr inbounds nuw %struct.varattrib_1b, ptr %22, i32 0, i32 1
  %24 = getelementptr inbounds [0 x i8], ptr %23, i64 0, i64 0
  br label %29

25:                                               ; preds = %14
  %26 = load ptr, ptr %4, align 8
  %27 = getelementptr inbounds nuw %struct.anon, ptr %26, i32 0, i32 1
  %28 = getelementptr inbounds [0 x i8], ptr %27, i64 0, i64 0
  br label %29

29:                                               ; preds = %25, %21
  %30 = phi ptr [ %24, %21 ], [ %28, %25 ]
  store ptr %30, ptr %5, align 8
  call void @llvm.lifetime.start.p0(i64 4, ptr %6) #8
  %31 = load ptr, ptr %4, align 8
  %32 = getelementptr inbounds nuw %struct.varattrib_1b, ptr %31, i32 0, i32 0
  %33 = load i8, ptr %32, align 1
  %34 = zext i8 %33 to i32
  %35 = icmp eq i32 %34, 1
  br i1 %35, label %36, label %64

36:                                               ; preds = %29
  %37 = load ptr, ptr %4, align 8
  %38 = getelementptr inbounds nuw %struct.varattrib_1b_e, ptr %37, i32 0, i32 1
  %39 = load i8, ptr %38, align 1
  %40 = zext i8 %39 to i32
  %41 = icmp eq i32 %40, 1
  br i1 %41, label %42, label %43

42:                                               ; preds = %36
  br label %60

43:                                               ; preds = %36
  %44 = load ptr, ptr %4, align 8
  %45 = getelementptr inbounds nuw %struct.varattrib_1b_e, ptr %44, i32 0, i32 1
  %46 = load i8, ptr %45, align 1
  %47 = zext i8 %46 to i32
  %48 = and i32 %47, -2
  %49 = icmp eq i32 %48, 2
  br i1 %49, label %50, label %51

50:                                               ; preds = %43
  br label %58

51:                                               ; preds = %43
  %52 = load ptr, ptr %4, align 8
  %53 = getelementptr inbounds nuw %struct.varattrib_1b_e, ptr %52, i32 0, i32 1
  %54 = load i8, ptr %53, align 1
  %55 = zext i8 %54 to i32
  %56 = icmp eq i32 %55, 18
  %57 = select i1 %56, i64 16, i64 0
  br label %58

58:                                               ; preds = %51, %50
  %59 = phi i64 [ 8, %50 ], [ %57, %51 ]
  br label %60

60:                                               ; preds = %58, %42
  %61 = phi i64 [ 8, %42 ], [ %59, %58 ]
  %62 = add i64 2, %61
  %63 = sub i64 %62, 2
  br label %90

64:                                               ; preds = %29
  %65 = load ptr, ptr %4, align 8
  %66 = getelementptr inbounds nuw %struct.varattrib_1b, ptr %65, i32 0, i32 0
  %67 = load i8, ptr %66, align 1
  %68 = zext i8 %67 to i32
  %69 = and i32 %68, 1
  %70 = icmp eq i32 %69, 1
  br i1 %70, label %71, label %80

71:                                               ; preds = %64
  %72 = load ptr, ptr %4, align 8
  %73 = getelementptr inbounds nuw %struct.varattrib_1b, ptr %72, i32 0, i32 0
  %74 = load i8, ptr %73, align 1
  %75 = zext i8 %74 to i32
  %76 = ashr i32 %75, 1
  %77 = and i32 %76, 127
  %78 = sext i32 %77 to i64
  %79 = sub i64 %78, 1
  br label %88

80:                                               ; preds = %64
  %81 = load ptr, ptr %4, align 8
  %82 = getelementptr inbounds nuw %struct.anon, ptr %81, i32 0, i32 0
  %83 = load i32, ptr %82, align 4
  %84 = lshr i32 %83, 2
  %85 = and i32 %84, 1073741823
  %86 = sub i32 %85, 4
  %87 = zext i32 %86 to i64
  br label %88

88:                                               ; preds = %80, %71
  %89 = phi i64 [ %79, %71 ], [ %87, %80 ]
  br label %90

90:                                               ; preds = %88, %60
  %91 = phi i64 [ %63, %60 ], [ %89, %88 ]
  %92 = trunc i64 %91 to i32
  store i32 %92, ptr %6, align 4
  call void @llvm.lifetime.start.p0(i64 4, ptr %7) #8
  store i32 0, ptr %7, align 4
  br label %93

93:                                               ; preds = %200, %90
  %94 = load i32, ptr %7, align 4
  %95 = load i32, ptr %6, align 4
  %96 = icmp slt i32 %94, %95
  br i1 %96, label %97, label %203

97:                                               ; preds = %93
  %98 = load ptr, ptr %5, align 8
  %99 = load i32, ptr %7, align 4
  %100 = sext i32 %99 to i64
  %101 = getelementptr inbounds i8, ptr %98, i64 %100
  %102 = load i8, ptr %101, align 1
  %103 = sext i8 %102 to i32
  switch i32 %103, label %178 [
    i32 103, label %104
    i32 98, label %107
    i32 99, label %112
    i32 101, label %117
    i32 105, label %126
    i32 109, label %131
    i32 110, label %131
    i32 112, label %136
    i32 113, label %145
    i32 115, label %154
    i32 116, label %159
    i32 119, label %164
    i32 120, label %173
  ]

104:                                              ; preds = %97
  %105 = load ptr, ptr %3, align 8
  %106 = getelementptr inbounds nuw %struct.pg_re_flags, ptr %105, i32 0, i32 1
  store i8 1, ptr %106, align 4
  br label %199

107:                                              ; preds = %97
  %108 = load ptr, ptr %3, align 8
  %109 = getelementptr inbounds nuw %struct.pg_re_flags, ptr %108, i32 0, i32 0
  %110 = load i32, ptr %109, align 4
  %111 = and i32 %110, -8
  store i32 %111, ptr %109, align 4
  br label %199

112:                                              ; preds = %97
  %113 = load ptr, ptr %3, align 8
  %114 = getelementptr inbounds nuw %struct.pg_re_flags, ptr %113, i32 0, i32 0
  %115 = load i32, ptr %114, align 4
  %116 = and i32 %115, -9
  store i32 %116, ptr %114, align 4
  br label %199

117:                                              ; preds = %97
  %118 = load ptr, ptr %3, align 8
  %119 = getelementptr inbounds nuw %struct.pg_re_flags, ptr %118, i32 0, i32 0
  %120 = load i32, ptr %119, align 4
  %121 = or i32 %120, 1
  store i32 %121, ptr %119, align 4
  %122 = load ptr, ptr %3, align 8
  %123 = getelementptr inbounds nuw %struct.pg_re_flags, ptr %122, i32 0, i32 0
  %124 = load i32, ptr %123, align 4
  %125 = and i32 %124, -8
  store i32 %125, ptr %123, align 4
  br label %199

126:                                              ; preds = %97
  %127 = load ptr, ptr %3, align 8
  %128 = getelementptr inbounds nuw %struct.pg_re_flags, ptr %127, i32 0, i32 0
  %129 = load i32, ptr %128, align 4
  %130 = or i32 %129, 8
  store i32 %130, ptr %128, align 4
  br label %199

131:                                              ; preds = %97, %97
  %132 = load ptr, ptr %3, align 8
  %133 = getelementptr inbounds nuw %struct.pg_re_flags, ptr %132, i32 0, i32 0
  %134 = load i32, ptr %133, align 4
  %135 = or i32 %134, 192
  store i32 %135, ptr %133, align 4
  br label %199

136:                                              ; preds = %97
  %137 = load ptr, ptr %3, align 8
  %138 = getelementptr inbounds nuw %struct.pg_re_flags, ptr %137, i32 0, i32 0
  %139 = load i32, ptr %138, align 4
  %140 = or i32 %139, 64
  store i32 %140, ptr %138, align 4
  %141 = load ptr, ptr %3, align 8
  %142 = getelementptr inbounds nuw %struct.pg_re_flags, ptr %141, i32 0, i32 0
  %143 = load i32, ptr %142, align 4
  %144 = and i32 %143, -129
  store i32 %144, ptr %142, align 4
  br label %199

145:                                              ; preds = %97
  %146 = load ptr, ptr %3, align 8
  %147 = getelementptr inbounds nuw %struct.pg_re_flags, ptr %146, i32 0, i32 0
  %148 = load i32, ptr %147, align 4
  %149 = or i32 %148, 4
  store i32 %149, ptr %147, align 4
  %150 = load ptr, ptr %3, align 8
  %151 = getelementptr inbounds nuw %struct.pg_re_flags, ptr %150, i32 0, i32 0
  %152 = load i32, ptr %151, align 4
  %153 = and i32 %152, -4
  store i32 %153, ptr %151, align 4
  br label %199

154:                                              ; preds = %97
  %155 = load ptr, ptr %3, align 8
  %156 = getelementptr inbounds nuw %struct.pg_re_flags, ptr %155, i32 0, i32 0
  %157 = load i32, ptr %156, align 4
  %158 = and i32 %157, -193
  store i32 %158, ptr %156, align 4
  br label %199

159:                                              ; preds = %97
  %160 = load ptr, ptr %3, align 8
  %161 = getelementptr inbounds nuw %struct.pg_re_flags, ptr %160, i32 0, i32 0
  %162 = load i32, ptr %161, align 4
  %163 = and i32 %162, -33
  store i32 %163, ptr %161, align 4
  br label %199

164:                                              ; preds = %97
  %165 = load ptr, ptr %3, align 8
  %166 = getelementptr inbounds nuw %struct.pg_re_flags, ptr %165, i32 0, i32 0
  %167 = load i32, ptr %166, align 4
  %168 = and i32 %167, -65
  store i32 %168, ptr %166, align 4
  %169 = load ptr, ptr %3, align 8
  %170 = getelementptr inbounds nuw %struct.pg_re_flags, ptr %169, i32 0, i32 0
  %171 = load i32, ptr %170, align 4
  %172 = or i32 %171, 128
  store i32 %172, ptr %170, align 4
  br label %199

173:                                              ; preds = %97
  %174 = load ptr, ptr %3, align 8
  %175 = getelementptr inbounds nuw %struct.pg_re_flags, ptr %174, i32 0, i32 0
  %176 = load i32, ptr %175, align 4
  %177 = or i32 %176, 32
  store i32 %177, ptr %175, align 4
  br label %199

178:                                              ; preds = %97
  br label %179

179:                                              ; preds = %178
  br i1 true, label %180, label %182

180:                                              ; preds = %179
  %181 = call zeroext i1 @errstart_cold(i32 noundef 21, ptr noundef null) #10
  br i1 %181, label %184, label %196

182:                                              ; preds = %179
  %183 = call zeroext i1 @errstart(i32 noundef 21, ptr noundef null)
  br i1 %183, label %184, label %196

184:                                              ; preds = %182, %180
  %185 = call i32 @errcode(i32 noundef 50856066)
  %186 = load ptr, ptr %5, align 8
  %187 = load i32, ptr %7, align 4
  %188 = sext i32 %187 to i64
  %189 = getelementptr inbounds i8, ptr %186, i64 %188
  %190 = call i32 @pg_mblen(ptr noundef %189)
  %191 = load ptr, ptr %5, align 8
  %192 = load i32, ptr %7, align 4
  %193 = sext i32 %192 to i64
  %194 = getelementptr inbounds i8, ptr %191, i64 %193
  %195 = call i32 (ptr, ...) @errmsg(ptr noundef @.str.4, i32 noundef %190, ptr noundef %194)
  call void @errfinish(ptr noundef @.str.3, i32 noundef 446, ptr noundef @__func__.parse_re_flags)
  br label %196

196:                                              ; preds = %184, %182, %180
  unreachable

197:                                              ; No predecessors!
  br label %198

198:                                              ; preds = %197
  br label %199

199:                                              ; preds = %198, %173, %164, %159, %154, %145, %136, %131, %126, %117, %112, %107, %104
  br label %200

200:                                              ; preds = %199
  %201 = load i32, ptr %7, align 4
  %202 = add i32 %201, 1
  store i32 %202, ptr %7, align 4
  br label %93, !llvm.loop !8

203:                                              ; preds = %93
  call void @llvm.lifetime.end.p0(i64 4, ptr %7) #8
  call void @llvm.lifetime.end.p0(i64 4, ptr %6) #8
  call void @llvm.lifetime.end.p0(i64 8, ptr %5) #8
  br label %204

204:                                              ; preds = %203, %2
  ret void
}