; Function Attrs: nounwind uwtable
define internal fastcc void @parse_re_flags(ptr noundef nonnull writeonly captures(none) initializes((0, 5)) %0, ptr noundef %1) unnamed_addr #0 {
  store i32 3, ptr %0, align 4
  %3 = getelementptr inbounds nuw i8, ptr %0, i64 4
  store i8 0, ptr %3, align 4
  %.not = icmp eq ptr %1, null
  br i1 %.not, label %.loopexit, label %4

4:                                                ; preds = %2
  %5 = load i8, ptr %1, align 1
  %6 = zext i8 %5 to i32
  %7 = and i32 %6, 1
  %.not40 = icmp eq i32 %7, 0
  %8 = getelementptr inbounds nuw i8, ptr %1, i64 1
  %9 = getelementptr inbounds nuw i8, ptr %1, i64 4
  %10 = select i1 %.not40, ptr %9, ptr %8
  %11 = icmp eq i8 %5, 1
  br i1 %11, label %12, label %16

12:                                               ; preds = %4
  %13 = load i8, ptr %8, align 1
  %14 = icmp eq i8 %13, 18
  %15 = select i1 %14, i32 16, i32 0
  %.off = add i8 %13, -1
  %switch = icmp ult i8 %.off, 3
  br i1 %switch, label %.lr.ph.preheader, label %24

16:                                               ; preds = %4
  br i1 %.not40, label %20, label %17

17:                                               ; preds = %16
  %18 = lshr i32 %6, 1
  %19 = add nsw i32 %18, -1
  br label %24

20:                                               ; preds = %16
  %21 = load i32, ptr %1, align 4
  %22 = lshr i32 %21, 2
  %23 = add nsw i32 %22, -4
  br label %24

24:                                               ; preds = %12, %17, %20
  %25 = phi i32 [ %15, %12 ], [ %19, %17 ], [ %23, %20 ]
  %26 = icmp sgt i32 %25, 0
  br i1 %26, label %.lr.ph.preheader, label %.loopexit

.lr.ph.preheader:                                 ; preds = %12, %24
  %27 = phi i32 [ %25, %24 ], [ 8, %12 ]
  %wide.trip.count = zext nneg i32 %27 to i64
  br label %.lr.ph

.lr.ph:                                           ; preds = %.lr.ph.preheader, %63
  %28 = phi i32 [ 3, %.lr.ph.preheader ], [ %64, %63 ]
  %indvars.iv = phi i64 [ 0, %.lr.ph.preheader ], [ %indvars.iv.next, %63 ]
  %29 = getelementptr inbounds nuw i8, ptr %10, i64 %indvars.iv
  %30 = load i8, ptr %29, align 1
  switch i8 %30, label %57 [
    i8 103, label %31
    i8 98, label %32
    i8 99, label %34
    i8 101, label %36
    i8 105, label %38
    i8 109, label %40
    i8 110, label %40
    i8 112, label %42
    i8 113, label %45
    i8 115, label %48
    i8 116, label %50
    i8 119, label %52
    i8 120, label %55
  ]

31:                                               ; preds = %.lr.ph
  store i8 1, ptr %3, align 4
  br label %63

32:                                               ; preds = %.lr.ph
  %33 = and i32 %28, -8
  store i32 %33, ptr %0, align 4
  br label %63

34:                                               ; preds = %.lr.ph
  %35 = and i32 %28, -9
  store i32 %35, ptr %0, align 4
  br label %63

36:                                               ; preds = %.lr.ph
  %37 = and i32 %28, -8
  store i32 %37, ptr %0, align 4
  br label %63

38:                                               ; preds = %.lr.ph
  %39 = or i32 %28, 8
  store i32 %39, ptr %0, align 4
  br label %63

40:                                               ; preds = %.lr.ph, %.lr.ph
  %41 = or i32 %28, 192
  store i32 %41, ptr %0, align 4
  br label %63

42:                                               ; preds = %.lr.ph
  %43 = and i32 %28, -193
  %44 = or disjoint i32 %43, 64
  store i32 %44, ptr %0, align 4
  br label %63

45:                                               ; preds = %.lr.ph
  %46 = and i32 %28, -8
  %47 = or disjoint i32 %46, 4
  store i32 %47, ptr %0, align 4
  br label %63

48:                                               ; preds = %.lr.ph
  %49 = and i32 %28, -193
  store i32 %49, ptr %0, align 4
  br label %63

50:                                               ; preds = %.lr.ph
  %51 = and i32 %28, -33
  store i32 %51, ptr %0, align 4
  br label %63

52:                                               ; preds = %.lr.ph
  %53 = and i32 %28, -193
  %54 = or disjoint i32 %53, 128
  store i32 %54, ptr %0, align 4
  br label %63

55:                                               ; preds = %.lr.ph
  %56 = or i32 %28, 32
  store i32 %56, ptr %0, align 4
  br label %63

57:                                               ; preds = %.lr.ph
  %58 = getelementptr inbounds nuw i8, ptr %10, i64 %indvars.iv
  %59 = tail call zeroext i1 @errstart_cold(i32 noundef 21, ptr noundef null) #10
  tail call void @llvm.assume(i1 %59)
  %60 = tail call i32 @errcode(i32 noundef 50856066) #9
  %61 = tail call i32 @pg_mblen(ptr noundef nonnull %58) #9
  %62 = tail call i32 (ptr, ...) @errmsg(ptr noundef nonnull @.str.4, i32 noundef %61, ptr noundef nonnull %58) #9
  tail call void @errfinish(ptr noundef nonnull @.str.3, i32 noundef 446, ptr noundef nonnull @__func__.parse_re_flags) #9
  unreachable

63:                                               ; preds = %31, %32, %34, %36, %38, %40, %42, %45, %48, %50, %52, %55
  %64 = phi i32 [ %28, %31 ], [ %33, %32 ], [ %35, %34 ], [ %37, %36 ], [ %39, %38 ], [ %41, %40 ], [ %44, %42 ], [ %47, %45 ], [ %49, %48 ], [ %51, %50 ], [ %54, %52 ], [ %56, %55 ]
  %indvars.iv.next = add nuw nsw i64 %indvars.iv, 1
  %exitcond.not = icmp eq i64 %indvars.iv.next, %wide.trip.count
  br i1 %exitcond.not, label %.loopexit, label %.lr.ph, !llvm.loop !9

.loopexit:                                        ; preds = %63, %24, %2
  ret void
}